target datalayout = "e-m:e-p270:32:32-p271:32:32-p272:64:64-i64:64-i128:128-f80:128-n8:16:32:64-S128"
target triple = "x86_64-pc-linux-gnu"

@simd_enabled = internal global i32 1, align 4
@__cpu_model = external dso_local global { i32, i32, i32, [1 x i32] }

; Function Attrs: nounwind uwtable
define dso_local void @hllDenseCompress(ptr noundef %0, ptr noundef %1) #0 {
  %3 = alloca ptr, align 8
  %4 = alloca ptr, align 8
  %5 = alloca i32, align 4
  %6 = alloca ptr, align 8
  %7 = alloca i64, align 8
  %8 = alloca i64, align 8
  %9 = alloca i64, align 8
  %10 = alloca i64, align 8
  store ptr %0, ptr %3, align 8, !tbaa !13
  store ptr %1, ptr %4, align 8, !tbaa !13
  %11 = load i32, ptr @simd_enabled, align 4, !tbaa !9
  %12 = icmp ne i32 %11, 0
  br i1 %12, label %13, label %21

13:                                               ; preds = %2
  %14 = load i32, ptr getelementptr inbounds ({ i32, i32, i32, [1 x i32] }, ptr @__cpu_model, i32 0, i32 3, i32 0), align 4
  %15 = and i32 %14, 1024
  %16 = icmp eq i32 %15, 1024
  %17 = and i1 true, %16
  br i1 %17, label %18, label %21

18:                                               ; preds = %13
  %19 = load ptr, ptr %3, align 8, !tbaa !13
  %20 = load ptr, ptr %4, align 8, !tbaa !13
  call void @hllDenseCompressAVX2(ptr noundef %19, ptr noundef %20)
  br label %94

21:                                               ; preds = %13, %2
  call void @llvm.lifetime.start.p0(i64 4, ptr %5) #15
  store i32 0, ptr %5, align 4, !tbaa !9
  br label %22

22:                                               ; preds = %91, %21
  %23 = load i32, ptr %5, align 4, !tbaa !9
  %24 = icmp slt i32 %23, 16384
  br i1 %24, label %26, label %25

25:                                               ; preds = %22
  call void @llvm.lifetime.end.p0(i64 4, ptr %5) #15
  br label %94

26:                                               ; preds = %22
  br label %27

27:                                               ; preds = %26
  call void @llvm.lifetime.start.p0(i64 8, ptr %6) #15
  %28 = load ptr, ptr %3, align 8, !tbaa !13
  store ptr %28, ptr %6, align 8, !tbaa !13
  call void @llvm.lifetime.start.p0(i64 8, ptr %7) #15
  %29 = load i32, ptr %5, align 4, !tbaa !9
  %30 = mul nsw i32 %29, 6
  %31 = sdiv i32 %30, 8
  %32 = sext i32 %31 to i64
  store i64 %32, ptr %7, align 8, !tbaa !11
  call void @llvm.lifetime.start.p0(i64 8, ptr %8) #15
  %33 = load i32, ptr %5, align 4, !tbaa !9
  %34 = mul nsw i32 %33, 6
  %35 = and i32 %34, 7
  %36 = sext i32 %35 to i64
  store i64 %36, ptr %8, align 8, !tbaa !11
  call void @llvm.lifetime.start.p0(i64 8, ptr %9) #15
  %37 = load i64, ptr %8, align 8, !tbaa !11
  %38 = sub i64 8, %37
  store i64 %38, ptr %9, align 8, !tbaa !11
  call void @llvm.lifetime.start.p0(i64 8, ptr %10) #15
  %39 = load ptr, ptr %4, align 8, !tbaa !13
  %40 = load i32, ptr %5, align 4, !tbaa !9
  %41 = sext i32 %40 to i64
  %42 = getelementptr inbounds i8, ptr %39, i64 %41
  %43 = load i8, ptr %42, align 1, !tbaa !17
  %44 = zext i8 %43 to i64
  store i64 %44, ptr %10, align 8, !tbaa !11
  %45 = load i64, ptr %8, align 8, !tbaa !11
  %46 = trunc i64 %45 to i32
  %47 = shl i32 63, %46
  %48 = xor i32 %47, -1
  %49 = load ptr, ptr %6, align 8, !tbaa !13
  %50 = load i64, ptr %7, align 8, !tbaa !11
  %51 = getelementptr inbounds nuw i8, ptr %49, i64 %50
  %52 = load i8, ptr %51, align 1, !tbaa !17
  %53 = zext i8 %52 to i32
  %54 = and i32 %53, %48
  %55 = trunc i32 %54 to i8
  store i8 %55, ptr %51, align 1, !tbaa !17
  %56 = load i64, ptr %10, align 8, !tbaa !11
  %57 = load i64, ptr %8, align 8, !tbaa !11
  %58 = shl i64 %56, %57
  %59 = load ptr, ptr %6, align 8, !tbaa !13
  %60 = load i64, ptr %7, align 8, !tbaa !11
  %61 = getelementptr inbounds nuw i8, ptr %59, i64 %60
  %62 = load i8, ptr %61, align 1, !tbaa !17
  %63 = zext i8 %62 to i64
  %64 = or i64 %63, %58
  %65 = trunc i64 %64 to i8
  store i8 %65, ptr %61, align 1, !tbaa !17
  %66 = load i64, ptr %9, align 8, !tbaa !11
  %67 = trunc i64 %66 to i32
  %68 = ashr i32 63, %67
  %69 = xor i32 %68, -1
  %70 = load ptr, ptr %6, align 8, !tbaa !13
  %71 = load i64, ptr %7, align 8, !tbaa !11
  %72 = add i64 %71, 1
  %73 = getelementptr inbounds nuw i8, ptr %70, i64 %72
  %74 = load i8, ptr %73, align 1, !tbaa !17
  %75 = zext i8 %74 to i32
  %76 = and i32 %75, %69
  %77 = trunc i32 %76 to i8
  store i8 %77, ptr %73, align 1, !tbaa !17
  %78 = load i64, ptr %10, align 8, !tbaa !11
  %79 = load i64, ptr %9, align 8, !tbaa !11
  %80 = lshr i64 %78, %79
  %81 = load ptr, ptr %6, align 8, !tbaa !13
  %82 = load i64, ptr %7, align 8, !tbaa !11
  %83 = add i64 %82, 1
  %84 = getelementptr inbounds nuw i8, ptr %81, i64 %83
  %85 = load i8, ptr %84, align 1, !tbaa !17
  %86 = zext i8 %85 to i64
  %87 = or i64 %86, %80
  %88 = trunc i64 %87 to i8
  store i8 %88, ptr %84, align 1, !tbaa !17
  call void @llvm.lifetime.end.p0(i64 8, ptr %10) #15
  call void @llvm.lifetime.end.p0(i64 8, ptr %9) #15
  call void @llvm.lifetime.end.p0(i64 8, ptr %8) #15
  call void @llvm.lifetime.end.p0(i64 8, ptr %7) #15
  call void @llvm.lifetime.end.p0(i64 8, ptr %6) #15
  br label %89

89:                                               ; preds = %27
  br label %90

90:                                               ; preds = %89
  br label %91

91:                                               ; preds = %90
  %92 = load i32, ptr %5, align 4, !tbaa !9
  %93 = add nsw i32 %92, 1
  store i32 %93, ptr %5, align 4, !tbaa !9
  br label %22, !llvm.loop !84

94:                                               ; preds = %18, %25
  ret void
}