; Function Attrs: nofree norecurse nosync nounwind memory(read, argmem: readwrite, inaccessiblemem: none) uwtable
define dso_local void @hllDenseCompress(ptr noundef captures(none) %0, ptr noundef readonly captures(none) %1) local_unnamed_addr #16 {
  %.b = load i1, ptr @simd_enabled, align 4
  br i1 %.b, label %.preheader, label %3

.preheader:                                       ; preds = %3, %2
  br label %7

3:                                                ; preds = %2
  %4 = load i32, ptr getelementptr inbounds nuw (i8, ptr @__cpu_model, i64 12), align 4
  %5 = and i32 %4, 1024
  %.not = icmp eq i32 %5, 0
  br i1 %.not, label %.preheader, label %6

6:                                                ; preds = %3
  tail call void @hllDenseCompressAVX2(ptr noundef %0, ptr noundef %1)
  br label %.loopexit

7:                                                ; preds = %.preheader, %7
  %indvars.iv = phi i64 [ %indvars.iv.next, %7 ], [ 0, %.preheader ]
  %8 = trunc i64 %indvars.iv to i32
  %9 = mul i32 %8, 6
  %10 = lshr i32 %9, 3
  %11 = zext nneg i32 %10 to i64
  %12 = and i32 %9, 6
  %13 = zext nneg i32 %12 to i64
  %14 = sub nuw nsw i64 8, %13
  %15 = getelementptr inbounds nuw i8, ptr %1, i64 %indvars.iv
  %16 = load i8, ptr %15, align 1, !tbaa !11
  %17 = zext i8 %16 to i64
  %18 = shl nuw nsw i32 63, %12
  %19 = getelementptr inbounds nuw i8, ptr %0, i64 %11
  %20 = load i8, ptr %19, align 1, !tbaa !11
  %21 = trunc i32 %18 to i8
  %22 = xor i8 %21, -1
  %23 = and i8 %20, %22
  %24 = shl nuw nsw i64 %17, %13
  %25 = trunc i64 %24 to i8
  %26 = or i8 %23, %25
  store i8 %26, ptr %19, align 1, !tbaa !11
  %27 = trunc nuw nsw i64 %14 to i16
  %28 = ashr i16 -64, %27
  %29 = getelementptr inbounds nuw i8, ptr %19, i64 1
  %30 = load i8, ptr %29, align 1, !tbaa !11
  %31 = trunc nsw i16 %28 to i8
  %32 = and i8 %30, %31
  %33 = lshr i64 %17, %14
  %34 = trunc nuw nsw i64 %33 to i8
  %35 = or i8 %32, %34
  store i8 %35, ptr %29, align 1, !tbaa !11
  %indvars.iv.next = add nuw nsw i64 %indvars.iv, 1
  %exitcond.not = icmp eq i64 %indvars.iv.next, 16384
  br i1 %exitcond.not, label %.loopexit, label %7, !llvm.loop !65

.loopexit:                                        ; preds = %7, %6
  ret void
}